target datalayout = "e-m:e-p270:32:32-p271:32:32-p272:64:64-i64:64-i128:128-f80:128-n8:16:32:64-S128"
target triple = "x86_64-pc-linux-gnu"

%struct.ActiveSnapshotElt = type { ptr, i32, ptr }

@ActiveSnapshot = internal global ptr null, align 8

; Function Attrs: nounwind uwtable
define dso_local void @AtSubCommit_Snapshot(i32 noundef %0) #0 {
  %2 = alloca i32, align 4
  %3 = alloca ptr, align 8
  store i32 %0, ptr %2, align 4
  call void @llvm.lifetime.start.p0(i64 8, ptr %3) #14
  %4 = load ptr, ptr @ActiveSnapshot, align 8
  store ptr %4, ptr %3, align 8
  br label %5

5:                                                ; preds = %20, %1
  %6 = load ptr, ptr %3, align 8
  %7 = icmp ne ptr %6, null
  br i1 %7, label %8, label %24

8:                                                ; preds = %5
  %9 = load ptr, ptr %3, align 8
  %10 = getelementptr inbounds nuw %struct.ActiveSnapshotElt, ptr %9, i32 0, i32 1
  %11 = load i32, ptr %10, align 8
  %12 = load i32, ptr %2, align 4
  %13 = icmp slt i32 %11, %12
  br i1 %13, label %14, label %15

14:                                               ; preds = %8
  br label %24

15:                                               ; preds = %8
  %16 = load i32, ptr %2, align 4
  %17 = sub i32 %16, 1
  %18 = load ptr, ptr %3, align 8
  %19 = getelementptr inbounds nuw %struct.ActiveSnapshotElt, ptr %18, i32 0, i32 1
  store i32 %17, ptr %19, align 8
  br label %20

20:                                               ; preds = %15
  %21 = load ptr, ptr %3, align 8
  %22 = getelementptr inbounds nuw %struct.ActiveSnapshotElt, ptr %21, i32 0, i32 2
  %23 = load ptr, ptr %22, align 8
  store ptr %23, ptr %3, align 8
  br label %5, !llvm.loop !6

24:                                               ; preds = %14, %5
  call void @llvm.lifetime.end.p0(i64 8, ptr %3) #14
  ret void
}