; Function Attrs: nofree norecurse nosync nounwind memory(readwrite, inaccessiblemem: none) uwtable
define dso_local void @AtSubCommit_Snapshot(i32 noundef %0) local_unnamed_addr #7 {
  %.06 = load ptr, ptr @ActiveSnapshot, align 8
  %.not7 = icmp eq ptr %.06, null
  br i1 %.not7, label %._crit_edge, label %.lr.ph

.lr.ph:                                           ; preds = %1
  %2 = add i32 %0, -1
  br label %3

3:                                                ; preds = %.lr.ph, %7
  %.08 = phi ptr [ %.06, %.lr.ph ], [ %.0, %7 ]
  %4 = getelementptr inbounds nuw i8, ptr %.08, i64 8
  %5 = load i32, ptr %4, align 8
  %6 = icmp slt i32 %5, %0
  br i1 %6, label %._crit_edge, label %7

7:                                                ; preds = %3
  store i32 %2, ptr %4, align 8
  %8 = getelementptr inbounds nuw i8, ptr %.08, i64 16
  %.0 = load ptr, ptr %8, align 8
  %.not = icmp eq ptr %.0, null
  br i1 %.not, label %._crit_edge, label %3, !llvm.loop !6

._crit_edge:                                      ; preds = %7, %3, %1
  ret void
}